; Function Attrs: nounwind uwtable
define void @stbir__horizontal_gather_4_channels_with_10_coeffs(ptr noundef writeonly captures(address) %0, i32 noundef %1, ptr noundef %2, ptr noundef readonly captures(none) %3, ptr noundef readonly captures(none) %4, i32 noundef %5) #0 {
  %7 = shl i32 %1, 2
  %8 = zext i32 %7 to i64
  %9 = getelementptr inbounds nuw float, ptr %0, i64 %8
  %10 = sext i32 %5 to i64
  br label %11

11:                                               ; preds = %11, %6
  %.060 = phi ptr [ %0, %6 ], [ %73, %11 ]
  %.059 = phi ptr [ %4, %6 ], [ %71, %11 ]
  %.0 = phi ptr [ %3, %6 ], [ %72, %11 ]
  %12 = load i32, ptr %.0, align 4, !tbaa !34
  %13 = shl nsw i32 %12, 2
  %14 = sext i32 %13 to i64
  %15 = getelementptr inbounds float, ptr %2, i64 %14
  tail call void asm sideeffect "", "r,~{dirflag},~{fpsr},~{flags}"(ptr %15) #24, !srcloc !621
  %16 = load <4 x float>, ptr %.059, align 1, !tbaa !4
  %17 = shufflevector <4 x float> %16, <4 x float> poison, <4 x i32> zeroinitializer
  %18 = load <4 x float>, ptr %15, align 1, !tbaa !4
  %19 = fmul <4 x float> %18, %17
  %20 = shufflevector <4 x float> %16, <4 x float> poison, <4 x i32> <i32 1, i32 1, i32 1, i32 1>
  %21 = getelementptr inbounds nuw i8, ptr %15, i64 16
  %22 = load <4 x float>, ptr %21, align 1, !tbaa !4
  %23 = fmul <4 x float> %20, %22
  %24 = shufflevector <4 x float> %16, <4 x float> poison, <4 x i32> <i32 2, i32 2, i32 2, i32 2>
  %25 = getelementptr inbounds nuw i8, ptr %15, i64 32
  %26 = load <4 x float>, ptr %25, align 1, !tbaa !4
  %27 = fmul <4 x float> %24, %26
  %28 = fadd <4 x float> %19, %27
  %29 = shufflevector <4 x float> %16, <4 x float> poison, <4 x i32> <i32 3, i32 3, i32 3, i32 3>
  %30 = getelementptr inbounds nuw i8, ptr %15, i64 48
  %31 = load <4 x float>, ptr %30, align 1, !tbaa !4
  %32 = fmul <4 x float> %29, %31
  %33 = fadd <4 x float> %23, %32
  tail call void asm sideeffect "", "r,~{dirflag},~{fpsr},~{flags}"(ptr nonnull %15) #24, !srcloc !622
  %34 = getelementptr inbounds nuw i8, ptr %.059, i64 16
  %35 = load <4 x float>, ptr %34, align 1, !tbaa !4
  %36 = shufflevector <4 x float> %35, <4 x float> poison, <4 x i32> zeroinitializer
  %37 = getelementptr inbounds nuw i8, ptr %15, i64 64
  %38 = load <4 x float>, ptr %37, align 1, !tbaa !4
  %39 = fmul <4 x float> %38, %36
  %40 = fadd <4 x float> %28, %39
  %41 = shufflevector <4 x float> %35, <4 x float> poison, <4 x i32> <i32 1, i32 1, i32 1, i32 1>
  %42 = getelementptr inbounds nuw i8, ptr %15, i64 80
  %43 = load <4 x float>, ptr %42, align 1, !tbaa !4
  %44 = fmul <4 x float> %41, %43
  %45 = fadd <4 x float> %33, %44
  %46 = shufflevector <4 x float> %35, <4 x float> poison, <4 x i32> <i32 2, i32 2, i32 2, i32 2>
  %47 = getelementptr inbounds nuw i8, ptr %15, i64 96
  %48 = load <4 x float>, ptr %47, align 1, !tbaa !4
  %49 = fmul <4 x float> %46, %48
  %50 = fadd <4 x float> %40, %49
  %51 = shufflevector <4 x float> %35, <4 x float> poison, <4 x i32> <i32 3, i32 3, i32 3, i32 3>
  %52 = getelementptr inbounds nuw i8, ptr %15, i64 112
  %53 = load <4 x float>, ptr %52, align 1, !tbaa !4
  %54 = fmul <4 x float> %51, %53
  %55 = fadd <4 x float> %45, %54
  tail call void asm sideeffect "", "r,~{dirflag},~{fpsr},~{flags}"(ptr nonnull %15) #24, !srcloc !623
  %56 = getelementptr inbounds nuw i8, ptr %.059, i64 32
  %57 = load i64, ptr %56, align 1, !tbaa !4
  %58 = insertelement <2 x i64> <i64 poison, i64 0>, i64 %57, i64 0
  %59 = bitcast <2 x i64> %58 to <4 x float>
  %60 = shufflevector <4 x float> %59, <4 x float> poison, <4 x i32> zeroinitializer
  %61 = getelementptr inbounds nuw i8, ptr %15, i64 128
  %62 = load <4 x float>, ptr %61, align 1, !tbaa !4
  %63 = fmul <4 x float> %62, %60
  %64 = fadd <4 x float> %50, %63
  %65 = shufflevector <4 x float> %59, <4 x float> poison, <4 x i32> <i32 1, i32 1, i32 1, i32 1>
  %66 = getelementptr inbounds nuw i8, ptr %15, i64 144
  %67 = load <4 x float>, ptr %66, align 1, !tbaa !4
  %68 = fmul <4 x float> %67, %65
  %69 = fadd <4 x float> %55, %68
  %70 = fadd <4 x float> %64, %69
  store <4 x float> %70, ptr %.060, align 1, !tbaa !4
  %71 = getelementptr inbounds float, ptr %.059, i64 %10
  %72 = getelementptr inbounds nuw i8, ptr %.0, i64 8
  %73 = getelementptr inbounds nuw i8, ptr %.060, i64 16
  %74 = icmp ult ptr %73, %9
  br i1 %74, label %11, label %75, !llvm.loop !624

75:                                               ; preds = %11
  ret void
}